; Function Attrs: mustprogress uwtable
define hidden noundef i32 @_ZN9SampleICC11Read16FloatERSiPvi(ptr noundef nonnull align 8 dereferenceable(16) %istream, ptr nocapture noundef writeonly %pBufFloat, i32 noundef %num) local_unnamed_addr #6 {
entry:
  %tmp = alloca i16, align 2
  %cmp6 = icmp sgt i32 %num, 0
  br i1 %cmp6, label %for.body.preheader, label %for.end

for.body.preheader:                               ; preds = %entry
  %arrayidx1.i.i = getelementptr inbounds i8, ptr %tmp, i64 1
  br label %for.body

for.body:                                         ; preds = %for.body.preheader, %if.end
  %i.08 = phi i32 [ %inc, %if.end ], [ 0, %for.body.preheader ]
  %ptr.07 = phi ptr [ %incdec.ptr, %if.end ], [ %pBufFloat, %for.body.preheader ]
  %vtable.i.i = load ptr, ptr %istream, align 8
  %vbase.offset.ptr.i.i = getelementptr i8, ptr %vtable.i.i, i64 -24
  %vbase.offset.i.i = load i64, ptr %vbase.offset.ptr.i.i, align 8
  %add.ptr.i.i = getelementptr inbounds i8, ptr %istream, i64 %vbase.offset.i.i
  %call.i.i = call noundef zeroext i1 @_ZNKSt9basic_iosIcSt11char_traitsIcEE4goodEv(ptr noundef nonnull align 8 dereferenceable(264) %add.ptr.i.i)
  br i1 %call.i.i, label %_ZN9SampleICC5Read8ERSiPvi.exit.i, label %for.end

_ZN9SampleICC5Read8ERSiPvi.exit.i:                ; preds = %for.body
  %call1.i.i = call noundef nonnull align 8 dereferenceable(16) ptr @_ZNSi4readEPcl(ptr noundef nonnull align 8 dereferenceable(16) %istream, ptr noundef nonnull %tmp, i64 noundef 2)
  %vtable2.i.i = load ptr, ptr %istream, align 8
  %vbase.offset.ptr3.i.i = getelementptr i8, ptr %vtable2.i.i, i64 -24
  %vbase.offset4.i.i = load i64, ptr %vbase.offset.ptr3.i.i, align 8
  %add.ptr5.i.i = getelementptr inbounds i8, ptr %istream, i64 %vbase.offset4.i.i
  %call6.i.i = call noundef zeroext i1 @_ZNKSt9basic_iosIcSt11char_traitsIcEE4goodEv(ptr noundef nonnull align 8 dereferenceable(264) %add.ptr5.i.i)
  br i1 %call6.i.i, label %if.end, label %for.end

if.end:                                           ; preds = %_ZN9SampleICC5Read8ERSiPvi.exit.i
  %0 = load i8, ptr %tmp, align 2
  %1 = load i8, ptr %arrayidx1.i.i, align 1
  store i8 %1, ptr %tmp, align 2
  store i8 %0, ptr %arrayidx1.i.i, align 1
  %2 = load i16, ptr %tmp, align 2
  %conv = uitofp i16 %2 to float
  %div = fdiv float %conv, 6.553500e+04
  store float %div, ptr %ptr.07, align 4
  %incdec.ptr = getelementptr inbounds i8, ptr %ptr.07, i64 4
  %inc = add nuw nsw i32 %i.08, 1
  %exitcond.not = icmp eq i32 %inc, %num
  br i1 %exitcond.not, label %for.end, label %for.body, !llvm.loop !8

for.end:                                          ; preds = %_ZN9SampleICC5Read8ERSiPvi.exit.i, %if.end, %for.body, %entry
  %i.0.lcssa = phi i32 [ 0, %entry ], [ %i.08, %_ZN9SampleICC5Read8ERSiPvi.exit.i ], [ %i.08, %for.body ], [ %num, %if.end ]
  ret i32 %i.0.lcssa
}